target datalayout = "e-m:e-p270:32:32-p271:32:32-p272:64:64-i64:64-i128:128-f80:128-n8:16:32:64-S128"
target triple = "x86_64-pc-linux-gnu"

%"class.grpc_core::PolymorphicRefCount" = type { ptr }
%"class.grpc_core::RefCount" = type { %"struct.std::atomic" }
%"struct.std::atomic" = type { %"struct.std::__atomic_base" }
%"struct.std::__atomic_base" = type { i64 }
%"class.grpc_core::RefCountedPtr.200" = type { ptr }
%"class.std::_Sp_counted_base" = type { ptr, i32, i32 }
%"class.grpc_core::RefCounted.295" = type { %"class.grpc_core::PolymorphicRefCount", %"class.grpc_core::RefCount" }
%"class.grpc_core::RefCountedPtr.305" = type { ptr }
%"class.grpc_core::RefCounted.306" = type { %"class.grpc_core::PolymorphicRefCount", %"class.grpc_core::RefCount" }
%"class.grpc_core::EndpointAddressesIterator" = type { ptr }
%"class.std::_Sp_counted_ptr_inplace.408" = type { %"class.std::_Sp_counted_base", %"class.std::_Sp_counted_ptr_inplace<grpc_core::(anonymous namespace)::GrpcLb::Serverlist::AddressIterator, std::allocator<void>, __gnu_cxx::_S_atomic>::_Impl" }
%"class.std::_Sp_counted_ptr_inplace<grpc_core::(anonymous namespace)::GrpcLb::Serverlist::AddressIterator, std::allocator<void>, __gnu_cxx::_S_atomic>::_Impl" = type { %"struct.__gnu_cxx::__aligned_buffer.409" }
%"struct.__gnu_cxx::__aligned_buffer.409" = type { %"union.std::aligned_storage<24, 8>::type" }
%"union.std::aligned_storage<24, 8>::type" = type { [24 x i8] }
%"class.grpc_core::(anonymous namespace)::GrpcLb::Serverlist::AddressIterator" = type { %"class.grpc_core::EndpointAddressesIterator", %"class.grpc_core::RefCountedPtr.200", %"class.grpc_core::RefCountedPtr.305" }

; Function Attrs: alwaysinline mustprogress nounwind uwtable
define linkonce_odr noundef i64 @_ZNSt13__atomic_baseIlE9fetch_subElSt12memory_order(ptr noundef nonnull align 8 dereferenceable(8) %0, i64 noundef %1, i32 noundef %2) #9 comdat align 2 {
  %4 = alloca ptr, align 8
  %5 = alloca i64, align 8
  %6 = alloca i32, align 4
  %7 = alloca i64, align 8
  %8 = alloca i64, align 8
  store ptr %0, ptr %4, align 8, !tbaa !408
  store i64 %1, ptr %5, align 8, !tbaa !72
  store i32 %2, ptr %6, align 4, !tbaa !386
  %9 = load ptr, ptr %4, align 8
  %10 = getelementptr inbounds nuw %"struct.std::__atomic_base", ptr %9, i32 0, i32 0
  %11 = load i32, ptr %6, align 4, !tbaa !386
  %12 = load i64, ptr %5, align 8, !tbaa !72
  store i64 %12, ptr %7, align 8, !tbaa !72
  switch i32 %11, label %13 [
    i32 1, label %16
    i32 2, label %16
    i32 3, label %19
    i32 4, label %22
    i32 5, label %25
  ]

13:                                               ; preds = %3
  %14 = load i64, ptr %7, align 8
  %15 = atomicrmw sub ptr %10, i64 %14 monotonic, align 8
  store i64 %15, ptr %8, align 8
  br label %28

16:                                               ; preds = %3, %3
  %17 = load i64, ptr %7, align 8
  %18 = atomicrmw sub ptr %10, i64 %17 acquire, align 8
  store i64 %18, ptr %8, align 8
  br label %28

19:                                               ; preds = %3
  %20 = load i64, ptr %7, align 8
  %21 = atomicrmw sub ptr %10, i64 %20 release, align 8
  store i64 %21, ptr %8, align 8
  br label %28

22:                                               ; preds = %3
  %23 = load i64, ptr %7, align 8
  %24 = atomicrmw sub ptr %10, i64 %23 acq_rel, align 8
  store i64 %24, ptr %8, align 8
  br label %28

25:                                               ; preds = %3
  %26 = load i64, ptr %7, align 8
  %27 = atomicrmw sub ptr %10, i64 %26 seq_cst, align 8
  store i64 %27, ptr %8, align 8
  br label %28

28:                                               ; preds = %25, %22, %19, %16, %13
  %29 = load i64, ptr %8, align 8, !tbaa !72
  ret i64 %29
}

; Function Attrs: mustprogress nounwind uwtable
define linkonce_odr noundef zeroext i1 @_ZN9grpc_core8RefCount5UnrefEv(ptr noundef nonnull align 8 dereferenceable(8) %0) #5 comdat align 2 {
  %2 = alloca ptr, align 8
  %3 = alloca i64, align 8
  store ptr %0, ptr %2, align 8, !tbaa !404
  %4 = load ptr, ptr %2, align 8
  call void @llvm.lifetime.start.p0(i64 8, ptr %3) #3
  %5 = getelementptr inbounds nuw %"class.grpc_core::RefCount", ptr %4, i32 0, i32 0
  %6 = call noundef i64 @_ZNSt13__atomic_baseIlE9fetch_subElSt12memory_order(ptr noundef nonnull align 8 dereferenceable(8) %5, i64 noundef 1, i32 noundef 4) #3
  store i64 %6, ptr %3, align 8, !tbaa !72
  %7 = load i64, ptr %3, align 8, !tbaa !72
  %8 = icmp eq i64 %7, 1
  call void @llvm.lifetime.end.p0(i64 8, ptr %3) #3
  ret i1 %8
}

; Function Attrs: mustprogress uwtable
define internal void @_ZNK9grpc_core10RefCountedINS_12_GLOBAL__N_16GrpcLb10ServerlistENS_19PolymorphicRefCountENS_11UnrefDeleteEE5UnrefEv(ptr noundef nonnull align 8 dereferenceable(16) %0) #4 align 2 {
  %2 = alloca ptr, align 8
  store ptr %0, ptr %2, align 8, !tbaa !691
  %3 = load ptr, ptr %2, align 8
  %4 = getelementptr inbounds nuw %"class.grpc_core::RefCounted.295", ptr %3, i32 0, i32 1
  %5 = call noundef zeroext i1 @_ZN9grpc_core8RefCount5UnrefEv(ptr noundef nonnull align 8 dereferenceable(8) %4)
  %6 = zext i1 %5 to i64
  %7 = call i64 @llvm.expect.i64(i64 %6, i64 0)
  %8 = icmp ne i64 %7, 0
  br i1 %8, label %9, label %10

9:                                                ; preds = %1
  call void @_ZNK9grpc_core11UnrefDeleteclIKNS_12_GLOBAL__N_16GrpcLb10ServerlistEEEvPT_(ptr noundef nonnull align 1 dereferenceable(1) %3, ptr noundef %3)
  br label %10

10:                                               ; preds = %9, %1
  ret void
}

; Function Attrs: mustprogress uwtable
define linkonce_odr void @_ZNK9grpc_core10RefCountedINS_17GrpcLbClientStatsENS_19PolymorphicRefCountENS_11UnrefDeleteEE5UnrefEv(ptr noundef nonnull align 8 dereferenceable(16) %0) #4 comdat align 2 {
  %2 = alloca ptr, align 8
  store ptr %0, ptr %2, align 8, !tbaa !749
  %3 = load ptr, ptr %2, align 8
  %4 = getelementptr inbounds nuw %"class.grpc_core::RefCounted.306", ptr %3, i32 0, i32 1
  %5 = call noundef zeroext i1 @_ZN9grpc_core8RefCount5UnrefEv(ptr noundef nonnull align 8 dereferenceable(8) %4)
  %6 = zext i1 %5 to i64
  %7 = call i64 @llvm.expect.i64(i64 %6, i64 0)
  %8 = icmp ne i64 %7, 0
  br i1 %8, label %9, label %10

9:                                                ; preds = %1
  call void @_ZNK9grpc_core11UnrefDeleteclIKNS_17GrpcLbClientStatsEEEvPT_(ptr noundef nonnull align 1 dereferenceable(1) %3, ptr noundef %3)
  br label %10

10:                                               ; preds = %9, %1
  ret void
}

; Function Attrs: mustprogress nounwind uwtable
define linkonce_odr void @_ZN9grpc_core25EndpointAddressesIteratorD2Ev(ptr noundef nonnull align 8 dereferenceable(8) %0) unnamed_addr #5 comdat align 2 {
  %2 = alloca ptr, align 8
  store ptr %0, ptr %2, align 8, !tbaa !879
  ret void
}

; Function Attrs: mustprogress nounwind uwtable
define internal void @_ZN9grpc_core13RefCountedPtrINS_12_GLOBAL__N_16GrpcLb10ServerlistEED2Ev(ptr noundef nonnull align 8 dereferenceable(8) %0) unnamed_addr #5 align 2 personality ptr @__gxx_personality_v0 {
  %2 = alloca ptr, align 8
  store ptr %0, ptr %2, align 8, !tbaa !550
  %3 = load ptr, ptr %2, align 8
  %4 = getelementptr inbounds nuw %"class.grpc_core::RefCountedPtr.200", ptr %3, i32 0, i32 0
  %5 = load ptr, ptr %4, align 8, !tbaa !552
  %6 = icmp ne ptr %5, null
  br i1 %6, label %7, label %11

7:                                                ; preds = %1
  %8 = getelementptr inbounds nuw %"class.grpc_core::RefCountedPtr.200", ptr %3, i32 0, i32 0
  %9 = load ptr, ptr %8, align 8, !tbaa !552
  invoke void @_ZNK9grpc_core10RefCountedINS_12_GLOBAL__N_16GrpcLb10ServerlistENS_19PolymorphicRefCountENS_11UnrefDeleteEE5UnrefEv(ptr noundef nonnull align 8 dereferenceable(16) %9)
          to label %10 unwind label %12

10:                                               ; preds = %7
  br label %11

11:                                               ; preds = %10, %1
  ret void

12:                                               ; preds = %7
  %13 = landingpad { ptr, i32 }
          catch ptr null
  %14 = extractvalue { ptr, i32 } %13, 0
  call void @__clang_call_terminate(ptr %14) #29
  unreachable
}

; Function Attrs: mustprogress nounwind uwtable
define linkonce_odr void @_ZN9grpc_core13RefCountedPtrINS_17GrpcLbClientStatsEED2Ev(ptr noundef nonnull align 8 dereferenceable(8) %0) unnamed_addr #5 comdat align 2 personality ptr @__gxx_personality_v0 {
  %2 = alloca ptr, align 8
  store ptr %0, ptr %2, align 8, !tbaa !741
  %3 = load ptr, ptr %2, align 8
  %4 = getelementptr inbounds nuw %"class.grpc_core::RefCountedPtr.305", ptr %3, i32 0, i32 0
  %5 = load ptr, ptr %4, align 8, !tbaa !743
  %6 = icmp ne ptr %5, null
  br i1 %6, label %7, label %11

7:                                                ; preds = %1
  %8 = getelementptr inbounds nuw %"class.grpc_core::RefCountedPtr.305", ptr %3, i32 0, i32 0
  %9 = load ptr, ptr %8, align 8, !tbaa !743
  invoke void @_ZNK9grpc_core10RefCountedINS_17GrpcLbClientStatsENS_19PolymorphicRefCountENS_11UnrefDeleteEE5UnrefEv(ptr noundef nonnull align 8 dereferenceable(16) %9)
          to label %10 unwind label %12

10:                                               ; preds = %7
  br label %11

11:                                               ; preds = %10, %1
  ret void

12:                                               ; preds = %7
  %13 = landingpad { ptr, i32 }
          catch ptr null
  %14 = extractvalue { ptr, i32 } %13, 0
  call void @__clang_call_terminate(ptr %14) #29
  unreachable
}

; Function Attrs: inlinehint mustprogress nounwind uwtable
define internal void @_ZN9grpc_core12_GLOBAL__N_16GrpcLb10Serverlist15AddressIteratorD2Ev(ptr noundef nonnull align 8 dereferenceable(24) %0) unnamed_addr #11 align 2 {
  %2 = alloca ptr, align 8
  store ptr %0, ptr %2, align 8, !tbaa !1062
  %3 = load ptr, ptr %2, align 8
  %4 = getelementptr inbounds nuw %"class.grpc_core::(anonymous namespace)::GrpcLb::Serverlist::AddressIterator", ptr %3, i32 0, i32 2
  call void @_ZN9grpc_core13RefCountedPtrINS_17GrpcLbClientStatsEED2Ev(ptr noundef nonnull align 8 dereferenceable(8) %4) #3
  %5 = getelementptr inbounds nuw %"class.grpc_core::(anonymous namespace)::GrpcLb::Serverlist::AddressIterator", ptr %3, i32 0, i32 1
  call void @_ZN9grpc_core13RefCountedPtrINS_12_GLOBAL__N_16GrpcLb10ServerlistEED2Ev(ptr noundef nonnull align 8 dereferenceable(8) %5) #3
  call void @_ZN9grpc_core25EndpointAddressesIteratorD2Ev(ptr noundef nonnull align 8 dereferenceable(8) %3) #3
  ret void
}

; Function Attrs: mustprogress nounwind uwtable
define internal noundef ptr @_ZN9__gnu_cxx16__aligned_bufferIN9grpc_core12_GLOBAL__N_16GrpcLb10Serverlist15AddressIteratorEE7_M_addrEv(ptr noundef nonnull align 8 dereferenceable(24) %0) #5 align 2 {
  %2 = alloca ptr, align 8
  store ptr %0, ptr %2, align 8, !tbaa !1099
  %3 = load ptr, ptr %2, align 8
  %4 = getelementptr inbounds nuw %"struct.__gnu_cxx::__aligned_buffer.409", ptr %3, i32 0, i32 0
  ret ptr %4
}

; Function Attrs: noinline noreturn nounwind uwtable
define linkonce_odr hidden void @__clang_call_terminate(ptr noundef %0) #13 comdat {
  %2 = call ptr @__cxa_begin_catch(ptr %0) #3
  call void @_ZSt9terminatev() #29
  unreachable
}

; Function Attrs: inlinehint mustprogress nounwind uwtable
define internal void @_ZSt8_DestroyIN9grpc_core12_GLOBAL__N_16GrpcLb10Serverlist15AddressIteratorEEvPT_(ptr noundef %0) #11 {
  %2 = alloca ptr, align 8
  store ptr %0, ptr %2, align 8, !tbaa !1062
  %3 = load ptr, ptr %2, align 8, !tbaa !1062
  call void @_ZN9grpc_core12_GLOBAL__N_16GrpcLb10Serverlist15AddressIteratorD2Ev(ptr noundef nonnull align 8 dereferenceable(24) %3) #3
  ret void
}

; Function Attrs: mustprogress nounwind uwtable
define internal noundef ptr @_ZN9__gnu_cxx16__aligned_bufferIN9grpc_core12_GLOBAL__N_16GrpcLb10Serverlist15AddressIteratorEE6_M_ptrEv(ptr noundef nonnull align 8 dereferenceable(24) %0) #5 align 2 {
  %2 = alloca ptr, align 8
  store ptr %0, ptr %2, align 8, !tbaa !1099
  %3 = load ptr, ptr %2, align 8
  %4 = call noundef ptr @_ZN9__gnu_cxx16__aligned_bufferIN9grpc_core12_GLOBAL__N_16GrpcLb10Serverlist15AddressIteratorEE7_M_addrEv(ptr noundef nonnull align 8 dereferenceable(24) %3) #3
  ret ptr %4
}

; Function Attrs: mustprogress nounwind uwtable
define linkonce_odr noundef nonnull align 1 dereferenceable(1) ptr @_ZNSt14_Sp_ebo_helperILi0ESaIvELb1EE6_S_getERS1_(ptr noundef nonnull align 1 dereferenceable(1) %0) #5 comdat align 2 {
  %2 = alloca ptr, align 8
  store ptr %0, ptr %2, align 8, !tbaa !877
  %3 = load ptr, ptr %2, align 8, !tbaa !877
  ret ptr %3
}

; Function Attrs: mustprogress nounwind uwtable
define internal void @_ZNSt16allocator_traitsISaIvEE7destroyIN9grpc_core12_GLOBAL__N_16GrpcLb10Serverlist15AddressIteratorEEEvRS0_PT_(ptr noundef nonnull align 1 dereferenceable(1) %0, ptr noundef %1) #5 align 2 personality ptr @__gxx_personality_v0 {
  %3 = alloca ptr, align 8
  %4 = alloca ptr, align 8
  store ptr %0, ptr %3, align 8, !tbaa !821
  store ptr %1, ptr %4, align 8, !tbaa !1062
  %5 = load ptr, ptr %4, align 8, !tbaa !1062
  invoke void @_ZSt8_DestroyIN9grpc_core12_GLOBAL__N_16GrpcLb10Serverlist15AddressIteratorEEvPT_(ptr noundef %5)
          to label %6 unwind label %7

6:                                                ; preds = %2
  ret void

7:                                                ; preds = %2
  %8 = landingpad { ptr, i32 }
          catch ptr null
  %9 = extractvalue { ptr, i32 } %8, 0
  call void @__clang_call_terminate(ptr %9) #29
  unreachable
}

; Function Attrs: mustprogress nounwind uwtable
define internal noundef ptr @_ZNSt23_Sp_counted_ptr_inplaceIN9grpc_core12_GLOBAL__N_16GrpcLb10Serverlist15AddressIteratorESaIvELN9__gnu_cxx12_Lock_policyE2EE6_M_ptrEv(ptr noundef nonnull align 8 dereferenceable(40) %0) #5 align 2 {
  %2 = alloca ptr, align 8
  store ptr %0, ptr %2, align 8, !tbaa !1060
  %3 = load ptr, ptr %2, align 8
  %4 = getelementptr inbounds nuw %"class.std::_Sp_counted_ptr_inplace.408", ptr %3, i32 0, i32 1
  %5 = getelementptr inbounds nuw %"class.std::_Sp_counted_ptr_inplace<grpc_core::(anonymous namespace)::GrpcLb::Serverlist::AddressIterator, std::allocator<void>, __gnu_cxx::_S_atomic>::_Impl", ptr %4, i32 0, i32 0
  %6 = call noundef ptr @_ZN9__gnu_cxx16__aligned_bufferIN9grpc_core12_GLOBAL__N_16GrpcLb10Serverlist15AddressIteratorEE6_M_ptrEv(ptr noundef nonnull align 8 dereferenceable(24) %5) #3
  ret ptr %6
}

; Function Attrs: mustprogress nounwind uwtable
define internal noundef nonnull align 1 dereferenceable(1) ptr @_ZNSt23_Sp_counted_ptr_inplaceIN9grpc_core12_GLOBAL__N_16GrpcLb10Serverlist15AddressIteratorESaIvELN9__gnu_cxx12_Lock_policyE2EE5_Impl8_M_allocEv(ptr noundef nonnull align 8 dereferenceable(24) %0) #5 align 2 {
  %2 = alloca ptr, align 8
  store ptr %0, ptr %2, align 8, !tbaa !1072
  %3 = load ptr, ptr %2, align 8
  %4 = call noundef nonnull align 1 dereferenceable(1) ptr @_ZNSt14_Sp_ebo_helperILi0ESaIvELb1EE6_S_getERS1_(ptr noundef nonnull align 1 dereferenceable(1) %3)
  ret ptr %4
}

; Function Attrs: mustprogress nounwind uwtable
define internal void @_ZNSt23_Sp_counted_ptr_inplaceIN9grpc_core12_GLOBAL__N_16GrpcLb10Serverlist15AddressIteratorESaIvELN9__gnu_cxx12_Lock_policyE2EE10_M_disposeEv(ptr noundef nonnull align 8 dereferenceable(40) %0) unnamed_addr #5 align 2 {
  %2 = alloca ptr, align 8
  store ptr %0, ptr %2, align 8, !tbaa !1060
  %3 = load ptr, ptr %2, align 8
  %4 = getelementptr inbounds nuw %"class.std::_Sp_counted_ptr_inplace.408", ptr %3, i32 0, i32 1
  %5 = call noundef nonnull align 1 dereferenceable(1) ptr @_ZNSt23_Sp_counted_ptr_inplaceIN9grpc_core12_GLOBAL__N_16GrpcLb10Serverlist15AddressIteratorESaIvELN9__gnu_cxx12_Lock_policyE2EE5_Impl8_M_allocEv(ptr noundef nonnull align 8 dereferenceable(24) %4) #3
  %6 = call noundef ptr @_ZNSt23_Sp_counted_ptr_inplaceIN9grpc_core12_GLOBAL__N_16GrpcLb10Serverlist15AddressIteratorESaIvELN9__gnu_cxx12_Lock_policyE2EE6_M_ptrEv(ptr noundef nonnull align 8 dereferenceable(40) %3) #3
  call void @_ZNSt16allocator_traitsISaIvEE7destroyIN9grpc_core12_GLOBAL__N_16GrpcLb10Serverlist15AddressIteratorEEEvRS0_PT_(ptr noundef nonnull align 1 dereferenceable(1) %5, ptr noundef %6) #3
  ret void
}